target datalayout = "e-m:e-p270:32:32-p271:32:32-p272:64:64-i64:64-i128:128-f80:128-n8:16:32:64-S128"
target triple = "x86_64-pc-linux-gnu"

; Function Attrs: nounwind uwtable
define i32 @uriHexToLetterExW(i32 noundef %0, i32 noundef %1) #0 {
  %3 = alloca i32, align 4
  %4 = alloca i32, align 4
  %5 = alloca i32, align 4
  store i32 %0, ptr %4, align 4, !tbaa !14
  store i32 %1, ptr %5, align 4, !tbaa !14
  %6 = load i32, ptr %4, align 4, !tbaa !14
  switch i32 %6, label %37 [
    i32 0, label %7
    i32 1, label %8
    i32 2, label %9
    i32 3, label %10
    i32 4, label %11
    i32 5, label %12
    i32 6, label %13
    i32 7, label %14
    i32 8, label %15
    i32 9, label %16
    i32 10, label %17
    i32 11, label %21
    i32 12, label %25
    i32 13, label %29
    i32 14, label %33
  ]

7:                                                ; preds = %2
  store i32 48, ptr %3, align 4
  br label %41

8:                                                ; preds = %2
  store i32 49, ptr %3, align 4
  br label %41

9:                                                ; preds = %2
  store i32 50, ptr %3, align 4
  br label %41

10:                                               ; preds = %2
  store i32 51, ptr %3, align 4
  br label %41

11:                                               ; preds = %2
  store i32 52, ptr %3, align 4
  br label %41

12:                                               ; preds = %2
  store i32 53, ptr %3, align 4
  br label %41

13:                                               ; preds = %2
  store i32 54, ptr %3, align 4
  br label %41

14:                                               ; preds = %2
  store i32 55, ptr %3, align 4
  br label %41

15:                                               ; preds = %2
  store i32 56, ptr %3, align 4
  br label %41

16:                                               ; preds = %2
  store i32 57, ptr %3, align 4
  br label %41

17:                                               ; preds = %2
  %18 = load i32, ptr %5, align 4, !tbaa !14
  %19 = icmp eq i32 %18, 1
  %20 = select i1 %19, i32 65, i32 97
  store i32 %20, ptr %3, align 4
  br label %41

21:                                               ; preds = %2
  %22 = load i32, ptr %5, align 4, !tbaa !14
  %23 = icmp eq i32 %22, 1
  %24 = select i1 %23, i32 66, i32 98
  store i32 %24, ptr %3, align 4
  br label %41

25:                                               ; preds = %2
  %26 = load i32, ptr %5, align 4, !tbaa !14
  %27 = icmp eq i32 %26, 1
  %28 = select i1 %27, i32 67, i32 99
  store i32 %28, ptr %3, align 4
  br label %41

29:                                               ; preds = %2
  %30 = load i32, ptr %5, align 4, !tbaa !14
  %31 = icmp eq i32 %30, 1
  %32 = select i1 %31, i32 68, i32 100
  store i32 %32, ptr %3, align 4
  br label %41

33:                                               ; preds = %2
  %34 = load i32, ptr %5, align 4, !tbaa !14
  %35 = icmp eq i32 %34, 1
  %36 = select i1 %35, i32 69, i32 101
  store i32 %36, ptr %3, align 4
  br label %41

37:                                               ; preds = %2
  %38 = load i32, ptr %5, align 4, !tbaa !14
  %39 = icmp eq i32 %38, 1
  %40 = select i1 %39, i32 70, i32 102
  store i32 %40, ptr %3, align 4
  br label %41

41:                                               ; preds = %37, %33, %29, %25, %21, %17, %16, %15, %14, %13, %12, %11, %10, %9, %8, %7
  %42 = load i32, ptr %3, align 4
  ret i32 %42
}