; Function Attrs: mustprogress nofree norecurse nosync nounwind willreturn memory(none) uwtable
define range(i32 48, 103) i32 @uriHexToLetterExW(i32 noundef %0, i32 noundef %1) local_unnamed_addr #6 {
  switch i32 %0, label %27 [
    i32 0, label %30
    i32 1, label %3
    i32 2, label %4
    i32 3, label %5
    i32 4, label %6
    i32 5, label %7
    i32 6, label %8
    i32 7, label %9
    i32 8, label %10
    i32 9, label %11
    i32 10, label %12
    i32 11, label %15
    i32 12, label %18
    i32 13, label %21
    i32 14, label %24
  ]

3:                                                ; preds = %2
  br label %30

4:                                                ; preds = %2
  br label %30

5:                                                ; preds = %2
  br label %30

6:                                                ; preds = %2
  br label %30

7:                                                ; preds = %2
  br label %30

8:                                                ; preds = %2
  br label %30

9:                                                ; preds = %2
  br label %30

10:                                               ; preds = %2
  br label %30

11:                                               ; preds = %2
  br label %30

12:                                               ; preds = %2
  %13 = icmp eq i32 %1, 1
  %14 = select i1 %13, i32 65, i32 97
  br label %30

15:                                               ; preds = %2
  %16 = icmp eq i32 %1, 1
  %17 = select i1 %16, i32 66, i32 98
  br label %30

18:                                               ; preds = %2
  %19 = icmp eq i32 %1, 1
  %20 = select i1 %19, i32 67, i32 99
  br label %30

21:                                               ; preds = %2
  %22 = icmp eq i32 %1, 1
  %23 = select i1 %22, i32 68, i32 100
  br label %30

24:                                               ; preds = %2
  %25 = icmp eq i32 %1, 1
  %26 = select i1 %25, i32 69, i32 101
  br label %30

27:                                               ; preds = %2
  %28 = icmp eq i32 %1, 1
  %29 = select i1 %28, i32 70, i32 102
  br label %30

30:                                               ; preds = %2, %27, %24, %21, %18, %15, %12, %11, %10, %9, %8, %7, %6, %5, %4, %3
  %.0 = phi i32 [ %29, %27 ], [ %26, %24 ], [ %23, %21 ], [ %20, %18 ], [ %17, %15 ], [ %14, %12 ], [ 57, %11 ], [ 56, %10 ], [ 55, %9 ], [ 54, %8 ], [ 53, %7 ], [ 52, %6 ], [ 51, %5 ], [ 50, %4 ], [ 49, %3 ], [ 48, %2 ]
  ret i32 %.0
}